target datalayout = "e-m:e-p270:32:32-p271:32:32-p272:64:64-i64:64-i128:128-f80:128-n8:16:32:64-S128"
target triple = "x86_64-pc-linux-gnu"

; Function Attrs: mustprogress uwtable
define dso_local noundef double @_Z16luaL_checknumberP9lua_Statei(ptr noundef %0, i32 noundef %1) #3 {
  %3 = alloca ptr, align 8
  %4 = alloca i32, align 4
  %5 = alloca i32, align 4
  %6 = alloca double, align 8
  store ptr %0, ptr %3, align 8
  store i32 %1, ptr %4, align 4
  %7 = load ptr, ptr %3, align 8
  %8 = load i32, ptr %4, align 4
  %9 = call noundef double @_Z13lua_tonumberxP9lua_StateiPi(ptr noundef %7, i32 noundef %8, ptr noundef %5)
  store double %9, ptr %6, align 8
  %10 = load i32, ptr %5, align 4
  %11 = icmp ne i32 %10, 0
  br i1 %11, label %15, label %12

12:                                               ; preds = %2
  %13 = load ptr, ptr %3, align 8
  %14 = load i32, ptr %4, align 4
  call void @_ZL9tag_errorP9lua_Stateii(ptr noundef %13, i32 noundef %14, i32 noundef 3) #8
  unreachable

15:                                               ; preds = %2
  %16 = load double, ptr %6, align 8
  ret double %16
}